; Function Attrs: mustprogress nounwind uwtable
define internal fastcc void @_ZN3ue212_GLOBAL__N_114ExceptionProtoD2Ev(ptr nocapture noundef nonnull readonly align 8 dereferenceable(84) %this) unnamed_addr #3 align 2 personality ptr @__gxx_personality_v0 {
entry:
  %squash_states = getelementptr inbounds i8, ptr %this, i64 40
  %0 = load ptr, ptr %squash_states, align 8
  %tobool.not.i.i.i.i = icmp eq ptr %0, null
  br i1 %tobool.not.i.i.i.i, label %_ZN5boost14dynamic_bitsetImSaImEED2Ev.exit, label %if.then.i.i.i.i

if.then.i.i.i.i:                                  ; preds = %entry
  tail call void @_ZdlPv(ptr noundef nonnull %0) #27
  br label %_ZN5boost14dynamic_bitsetImSaImEED2Ev.exit

_ZN5boost14dynamic_bitsetImSaImEED2Ev.exit:       ; preds = %entry, %if.then.i.i.i.i
  %succ_states = getelementptr inbounds i8, ptr %this, i64 8
  %1 = load ptr, ptr %succ_states, align 8
  %tobool.not.i.i.i.i1 = icmp eq ptr %1, null
  br i1 %tobool.not.i.i.i.i1, label %_ZN5boost14dynamic_bitsetImSaImEED2Ev.exit3, label %if.then.i.i.i.i2

if.then.i.i.i.i2:                                 ; preds = %_ZN5boost14dynamic_bitsetImSaImEED2Ev.exit
  tail call void @_ZdlPv(ptr noundef nonnull %1) #27
  br label %_ZN5boost14dynamic_bitsetImSaImEED2Ev.exit3

_ZN5boost14dynamic_bitsetImSaImEED2Ev.exit3:      ; preds = %_ZN5boost14dynamic_bitsetImSaImEED2Ev.exit, %if.then.i.i.i.i2
  ret void
}